target datalayout = "e-m:e-p270:32:32-p271:32:32-p272:64:64-i64:64-i128:128-f80:128-n8:16:32:64-S128"
target triple = "x86_64-unknown-linux-gnu"

%struct.X509V3_CONF_METHOD_st = type { ptr, ptr, ptr, ptr }
%struct.v3_ext_ctx = type { i32, ptr, ptr, ptr, ptr, ptr, ptr }

@.str = private unnamed_addr constant [127 x i8] c"generated/home/dtcxzyw/WorkSpace/Projects/compilers/llvm-opt-benchmark/bench/libquic/libquic/boringssl/crypto/x509v3/v3_conf.c\00", align 1

; Function Attrs: nounwind uwtable
define hidden ptr @X509V3_get_string(ptr noundef %ctx, ptr noundef %name, ptr noundef %section) #0 {
entry:
  %retval = alloca ptr, align 8
  %ctx.addr = alloca ptr, align 8
  %name.addr = alloca ptr, align 8
  %section.addr = alloca ptr, align 8
  store ptr %ctx, ptr %ctx.addr, align 8
  store ptr %name, ptr %name.addr, align 8
  store ptr %section, ptr %section.addr, align 8
  %0 = load ptr, ptr %ctx.addr, align 8
  %db = getelementptr inbounds %struct.v3_ext_ctx, ptr %0, i32 0, i32 6
  %1 = load ptr, ptr %db, align 8
  %tobool = icmp ne ptr %1, null
  br i1 %tobool, label %lor.lhs.false, label %if.then

lor.lhs.false:                                    ; preds = %entry
  %2 = load ptr, ptr %ctx.addr, align 8
  %db_meth = getelementptr inbounds %struct.v3_ext_ctx, ptr %2, i32 0, i32 5
  %3 = load ptr, ptr %db_meth, align 8
  %tobool1 = icmp ne ptr %3, null
  br i1 %tobool1, label %lor.lhs.false2, label %if.then

lor.lhs.false2:                                   ; preds = %lor.lhs.false
  %4 = load ptr, ptr %ctx.addr, align 8
  %db_meth3 = getelementptr inbounds %struct.v3_ext_ctx, ptr %4, i32 0, i32 5
  %5 = load ptr, ptr %db_meth3, align 8
  %get_string = getelementptr inbounds %struct.X509V3_CONF_METHOD_st, ptr %5, i32 0, i32 0
  %6 = load ptr, ptr %get_string, align 8
  %tobool4 = icmp ne ptr %6, null
  br i1 %tobool4, label %if.end, label %if.then

if.then:                                          ; preds = %lor.lhs.false2, %lor.lhs.false, %entry
  call void @ERR_put_error(i32 noundef 20, i32 noundef 0, i32 noundef 147, ptr noundef @.str, i32 noundef 393)
  store ptr null, ptr %retval, align 8
  br label %return

if.end:                                           ; preds = %lor.lhs.false2
  %7 = load ptr, ptr %ctx.addr, align 8
  %db_meth5 = getelementptr inbounds %struct.v3_ext_ctx, ptr %7, i32 0, i32 5
  %8 = load ptr, ptr %db_meth5, align 8
  %get_string6 = getelementptr inbounds %struct.X509V3_CONF_METHOD_st, ptr %8, i32 0, i32 0
  %9 = load ptr, ptr %get_string6, align 8
  %tobool7 = icmp ne ptr %9, null
  br i1 %tobool7, label %if.then8, label %if.end12

if.then8:                                         ; preds = %if.end
  %10 = load ptr, ptr %ctx.addr, align 8
  %db_meth9 = getelementptr inbounds %struct.v3_ext_ctx, ptr %10, i32 0, i32 5
  %11 = load ptr, ptr %db_meth9, align 8
  %get_string10 = getelementptr inbounds %struct.X509V3_CONF_METHOD_st, ptr %11, i32 0, i32 0
  %12 = load ptr, ptr %get_string10, align 8
  %13 = load ptr, ptr %ctx.addr, align 8
  %db11 = getelementptr inbounds %struct.v3_ext_ctx, ptr %13, i32 0, i32 6
  %14 = load ptr, ptr %db11, align 8
  %15 = load ptr, ptr %name.addr, align 8
  %16 = load ptr, ptr %section.addr, align 8
  %call = call ptr %12(ptr noundef %14, ptr noundef %15, ptr noundef %16)
  store ptr %call, ptr %retval, align 8
  br label %return

if.end12:                                         ; preds = %if.end
  store ptr null, ptr %retval, align 8
  br label %return

return:                                           ; preds = %if.end12, %if.then8, %if.then
  %17 = load ptr, ptr %retval, align 8
  ret ptr %17
}