; Function Attrs: nounwind uwtable
define hidden ptr @X509V3_get_string(ptr noundef readonly captures(none) %ctx, ptr noundef %name, ptr noundef %section) local_unnamed_addr #0 {
entry:
  %db = getelementptr inbounds nuw i8, ptr %ctx, i64 48
  %0 = load ptr, ptr %db, align 8
  %tobool.not = icmp eq ptr %0, null
  br i1 %tobool.not, label %if.then, label %lor.lhs.false

lor.lhs.false:                                    ; preds = %entry
  %db_meth = getelementptr inbounds nuw i8, ptr %ctx, i64 40
  %1 = load ptr, ptr %db_meth, align 8
  %tobool1.not = icmp eq ptr %1, null
  br i1 %tobool1.not, label %if.then, label %lor.lhs.false2

lor.lhs.false2:                                   ; preds = %lor.lhs.false
  %2 = load ptr, ptr %1, align 8
  %tobool4.not = icmp eq ptr %2, null
  br i1 %tobool4.not, label %if.then, label %if.then8

if.then:                                          ; preds = %lor.lhs.false2, %lor.lhs.false, %entry
  tail call void @ERR_put_error(i32 noundef 20, i32 noundef 0, i32 noundef 147, ptr noundef nonnull @.str, i32 noundef 393) #10
  br label %return

if.then8:                                         ; preds = %lor.lhs.false2
  %call = tail call ptr %2(ptr noundef nonnull %0, ptr noundef %name, ptr noundef %section) #10
  br label %return

return:                                           ; preds = %if.then8, %if.then
  %retval.0 = phi ptr [ %call, %if.then8 ], [ null, %if.then ]
  ret ptr %retval.0
}